target datalayout = "e-m:e-p270:32:32-p271:32:32-p272:64:64-i64:64-i128:128-f80:128-n8:16:32:64-S128"
target triple = "x86_64-pc-linux-gnu"

%struct._object = type { %union.anon, ptr }
%union.anon = type { i64 }
%struct.instruction_sequence = type { %struct._object, ptr, i32, i32, i32, ptr, i32, ptr }
%struct._PyInstruction = type { i32, i32, %struct._Py_SourceLocation, %struct._PyExceptHandlerInfo, i32, i32 }
%struct._Py_SourceLocation = type { i32, i32, i32, i32 }
%struct._PyExceptHandlerInfo = type { i32, i32, i32 }

@_Py_NoneStruct = external global %struct._object, align 8

; Function Attrs: nounwind uwtable
define internal i32 @instr_sequence_next_inst(ptr noundef %0) #0 {
  %2 = alloca i32, align 4
  %3 = alloca ptr, align 8
  store ptr %0, ptr %3, align 8, !tbaa !4
  %4 = load ptr, ptr %3, align 8, !tbaa !4
  %5 = getelementptr inbounds nuw %struct.instruction_sequence, ptr %4, i32 0, i32 3
  %6 = load i32, ptr %5, align 4, !tbaa !23
  %7 = add i32 %6, 1
  %8 = load ptr, ptr %3, align 8, !tbaa !4
  %9 = getelementptr inbounds nuw %struct.instruction_sequence, ptr %8, i32 0, i32 1
  %10 = load ptr, ptr %3, align 8, !tbaa !4
  %11 = getelementptr inbounds nuw %struct.instruction_sequence, ptr %10, i32 0, i32 2
  %12 = call i32 @_PyCompile_EnsureArrayLargeEnough(i32 noundef %7, ptr noundef %9, ptr noundef %11, i32 noundef 100, i64 noundef 44)
  %13 = icmp eq i32 %12, -1
  br i1 %13, label %14, label %15

14:                                               ; preds = %1
  store i32 -1, ptr %2, align 4
  br label %20

15:                                               ; preds = %1
  %16 = load ptr, ptr %3, align 8, !tbaa !4
  %17 = getelementptr inbounds nuw %struct.instruction_sequence, ptr %16, i32 0, i32 3
  %18 = load i32, ptr %17, align 4, !tbaa !23
  %19 = add i32 %18, 1
  store i32 %19, ptr %17, align 4, !tbaa !23
  store i32 %18, ptr %2, align 4
  br label %20

20:                                               ; preds = %15, %14
  %21 = load i32, ptr %2, align 4
  ret i32 %21
}

; Function Attrs: nounwind uwtable
define hidden i32 @_PyInstructionSequence_Addop(ptr noundef %0, i32 noundef %1, i32 noundef %2, i64 %3, i64 %4) #0 {
  %6 = alloca i32, align 4
  %7 = alloca %struct._Py_SourceLocation, align 4
  %8 = alloca ptr, align 8
  %9 = alloca i32, align 4
  %10 = alloca i32, align 4
  %11 = alloca i32, align 4
  %12 = alloca i32, align 4
  %13 = alloca ptr, align 8
  %14 = getelementptr inbounds nuw { i64, i64 }, ptr %7, i32 0, i32 0
  store i64 %3, ptr %14, align 4
  %15 = getelementptr inbounds nuw { i64, i64 }, ptr %7, i32 0, i32 1
  store i64 %4, ptr %15, align 4
  store ptr %0, ptr %8, align 8, !tbaa !4
  store i32 %1, ptr %9, align 4, !tbaa !18
  store i32 %2, ptr %10, align 4, !tbaa !18
  call void @llvm.lifetime.start.p0(i64 4, ptr %11) #6
  %16 = load ptr, ptr %8, align 8, !tbaa !4
  %17 = call i32 @instr_sequence_next_inst(ptr noundef %16)
  store i32 %17, ptr %11, align 4, !tbaa !18
  %18 = load i32, ptr %11, align 4, !tbaa !18
  %19 = icmp eq i32 %18, -1
  br i1 %19, label %20, label %21

20:                                               ; preds = %5
  store i32 -1, ptr %6, align 4
  store i32 1, ptr %12, align 4
  br label %36

21:                                               ; preds = %5
  call void @llvm.lifetime.start.p0(i64 8, ptr %13) #6
  %22 = load ptr, ptr %8, align 8, !tbaa !4
  %23 = getelementptr inbounds nuw %struct.instruction_sequence, ptr %22, i32 0, i32 1
  %24 = load ptr, ptr %23, align 8, !tbaa !24
  %25 = load i32, ptr %11, align 4, !tbaa !18
  %26 = sext i32 %25 to i64
  %27 = getelementptr %struct._PyInstruction, ptr %24, i64 %26
  store ptr %27, ptr %13, align 8, !tbaa !25
  %28 = load i32, ptr %9, align 4, !tbaa !18
  %29 = load ptr, ptr %13, align 8, !tbaa !25
  %30 = getelementptr inbounds nuw %struct._PyInstruction, ptr %29, i32 0, i32 0
  store i32 %28, ptr %30, align 4, !tbaa !26
  %31 = load i32, ptr %10, align 4, !tbaa !18
  %32 = load ptr, ptr %13, align 8, !tbaa !25
  %33 = getelementptr inbounds nuw %struct._PyInstruction, ptr %32, i32 0, i32 1
  store i32 %31, ptr %33, align 4, !tbaa !33
  %34 = load ptr, ptr %13, align 8, !tbaa !25
  %35 = getelementptr inbounds nuw %struct._PyInstruction, ptr %34, i32 0, i32 2
  call void @llvm.memcpy.p0.p0.i64(ptr align 4 %35, ptr align 4 %7, i64 16, i1 false), !tbaa.struct !36
  store i32 0, ptr %6, align 4
  store i32 1, ptr %12, align 4
  call void @llvm.lifetime.end.p0(i64 8, ptr %13) #6
  br label %36

36:                                               ; preds = %21, %20
  call void @llvm.lifetime.end.p0(i64 4, ptr %11) #6
  %37 = load i32, ptr %6, align 4
  ret i32 %37
}

; Function Attrs: nounwind uwtable
define internal ptr @InstructionSequenceType_addop_impl(ptr noundef %0, i32 noundef %1, i32 noundef %2, i32 noundef %3, i32 noundef %4, i32 noundef %5, i32 noundef %6) #0 {
  %8 = alloca ptr, align 8
  %9 = alloca ptr, align 8
  %10 = alloca i32, align 4
  %11 = alloca i32, align 4
  %12 = alloca i32, align 4
  %13 = alloca i32, align 4
  %14 = alloca i32, align 4
  %15 = alloca i32, align 4
  %16 = alloca %struct._Py_SourceLocation, align 4
  %17 = alloca i32, align 4
  store ptr %0, ptr %9, align 8, !tbaa !4
  store i32 %1, ptr %10, align 4, !tbaa !18
  store i32 %2, ptr %11, align 4, !tbaa !18
  store i32 %3, ptr %12, align 4, !tbaa !18
  store i32 %4, ptr %13, align 4, !tbaa !18
  store i32 %5, ptr %14, align 4, !tbaa !18
  store i32 %6, ptr %15, align 4, !tbaa !18
  call void @llvm.lifetime.start.p0(i64 16, ptr %16) #6
  %18 = getelementptr inbounds nuw %struct._Py_SourceLocation, ptr %16, i32 0, i32 0
  %19 = load i32, ptr %12, align 4, !tbaa !18
  store i32 %19, ptr %18, align 4, !tbaa !69
  %20 = getelementptr inbounds nuw %struct._Py_SourceLocation, ptr %16, i32 0, i32 1
  %21 = load i32, ptr %13, align 4, !tbaa !18
  store i32 %21, ptr %20, align 4, !tbaa !70
  %22 = getelementptr inbounds nuw %struct._Py_SourceLocation, ptr %16, i32 0, i32 2
  %23 = load i32, ptr %14, align 4, !tbaa !18
  store i32 %23, ptr %22, align 4, !tbaa !71
  %24 = getelementptr inbounds nuw %struct._Py_SourceLocation, ptr %16, i32 0, i32 3
  %25 = load i32, ptr %15, align 4, !tbaa !18
  store i32 %25, ptr %24, align 4, !tbaa !72
  %26 = load ptr, ptr %9, align 8, !tbaa !4
  %27 = load i32, ptr %10, align 4, !tbaa !18
  %28 = load i32, ptr %11, align 4, !tbaa !18
  %29 = getelementptr inbounds nuw { i64, i64 }, ptr %16, i32 0, i32 0
  %30 = load i64, ptr %29, align 4
  %31 = getelementptr inbounds nuw { i64, i64 }, ptr %16, i32 0, i32 1
  %32 = load i64, ptr %31, align 4
  %33 = call i32 @_PyInstructionSequence_Addop(ptr noundef %26, i32 noundef %27, i32 noundef %28, i64 %30, i64 %32)
  %34 = icmp slt i32 %33, 0
  br i1 %34, label %35, label %36

35:                                               ; preds = %7
  store ptr null, ptr %8, align 8
  store i32 1, ptr %17, align 4
  br label %37

36:                                               ; preds = %7
  store ptr @_Py_NoneStruct, ptr %8, align 8
  store i32 1, ptr %17, align 4
  br label %37

37:                                               ; preds = %36, %35
  call void @llvm.lifetime.end.p0(i64 16, ptr %16) #6
  %38 = load ptr, ptr %8, align 8
  ret ptr %38
}

; Function Attrs: nounwind uwtable
define internal ptr @InstructionSequenceType_addop(ptr noundef %0, ptr noundef %1, i64 noundef %2, ptr noundef %3) #0 {
  %5 = alloca ptr, align 8
  %6 = alloca ptr, align 8
  %7 = alloca i64, align 8
  %8 = alloca ptr, align 8
  %9 = alloca ptr, align 8
  %10 = alloca [6 x ptr], align 16
  %11 = alloca i32, align 4
  %12 = alloca i32, align 4
  %13 = alloca i32, align 4
  %14 = alloca i32, align 4
  %15 = alloca i32, align 4
  %16 = alloca i32, align 4
  store ptr %0, ptr %5, align 8, !tbaa !41
  store ptr %1, ptr %6, align 8, !tbaa !63
  store i64 %2, ptr %7, align 8, !tbaa !68
  store ptr %3, ptr %8, align 8, !tbaa !41
  call void @llvm.lifetime.start.p0(i64 8, ptr %9) #6
  store ptr null, ptr %9, align 8, !tbaa !41
  call void @llvm.lifetime.start.p0(i64 48, ptr %10) #6
  call void @llvm.lifetime.start.p0(i64 4, ptr %11) #6
  call void @llvm.lifetime.start.p0(i64 4, ptr %12) #6
  call void @llvm.lifetime.start.p0(i64 4, ptr %13) #6
  call void @llvm.lifetime.start.p0(i64 4, ptr %14) #6
  call void @llvm.lifetime.start.p0(i64 4, ptr %15) #6
  call void @llvm.lifetime.start.p0(i64 4, ptr %16) #6
  %17 = load ptr, ptr %8, align 8, !tbaa !41
  %18 = icmp eq ptr %17, null
  br i1 %18, label %19, label %30

19:                                               ; preds = %4
  %20 = load i64, ptr %7, align 8, !tbaa !68
  %21 = icmp sle i64 6, %20
  br i1 %21, label %22, label %30

22:                                               ; preds = %19
  %23 = load i64, ptr %7, align 8, !tbaa !68
  %24 = icmp sle i64 %23, 6
  br i1 %24, label %25, label %30

25:                                               ; preds = %22
  %26 = load ptr, ptr %6, align 8, !tbaa !63
  %27 = icmp ne ptr %26, null
  br i1 %27, label %28, label %30

28:                                               ; preds = %25
  %29 = load ptr, ptr %6, align 8, !tbaa !63
  br label %36

30:                                               ; preds = %25, %22, %19, %4
  %31 = load ptr, ptr %6, align 8, !tbaa !63
  %32 = load i64, ptr %7, align 8, !tbaa !68
  %33 = load ptr, ptr %8, align 8, !tbaa !41
  %34 = getelementptr inbounds [6 x ptr], ptr %10, i64 0, i64 0
  %35 = call ptr @_PyArg_UnpackKeywords(ptr noundef %31, i64 noundef %32, ptr noundef null, ptr noundef %33, ptr noundef @InstructionSequenceType_addop._parser, i32 noundef 6, i32 noundef 6, i32 noundef 0, i32 noundef 0, ptr noundef %34)
  br label %36

36:                                               ; preds = %30, %28
  %37 = phi ptr [ %29, %28 ], [ %35, %30 ]
  store ptr %37, ptr %6, align 8, !tbaa !63
  %38 = load ptr, ptr %6, align 8, !tbaa !63
  %39 = icmp ne ptr %38, null
  br i1 %39, label %41, label %40

40:                                               ; preds = %36
  br label %116

41:                                               ; preds = %36
  %42 = load ptr, ptr %6, align 8, !tbaa !63
  %43 = getelementptr ptr, ptr %42, i64 0
  %44 = load ptr, ptr %43, align 8, !tbaa !41
  %45 = call i32 @PyLong_AsInt(ptr noundef %44)
  store i32 %45, ptr %11, align 4, !tbaa !18
  %46 = load i32, ptr %11, align 4, !tbaa !18
  %47 = icmp eq i32 %46, -1
  br i1 %47, label %48, label %52

48:                                               ; preds = %41
  %49 = call ptr @PyErr_Occurred()
  %50 = icmp ne ptr %49, null
  br i1 %50, label %51, label %52

51:                                               ; preds = %48
  br label %116

52:                                               ; preds = %48, %41
  %53 = load ptr, ptr %6, align 8, !tbaa !63
  %54 = getelementptr ptr, ptr %53, i64 1
  %55 = load ptr, ptr %54, align 8, !tbaa !41
  %56 = call i32 @PyLong_AsInt(ptr noundef %55)
  store i32 %56, ptr %12, align 4, !tbaa !18
  %57 = load i32, ptr %12, align 4, !tbaa !18
  %58 = icmp eq i32 %57, -1
  br i1 %58, label %59, label %63

59:                                               ; preds = %52
  %60 = call ptr @PyErr_Occurred()
  %61 = icmp ne ptr %60, null
  br i1 %61, label %62, label %63

62:                                               ; preds = %59
  br label %116

63:                                               ; preds = %59, %52
  %64 = load ptr, ptr %6, align 8, !tbaa !63
  %65 = getelementptr ptr, ptr %64, i64 2
  %66 = load ptr, ptr %65, align 8, !tbaa !41
  %67 = call i32 @PyLong_AsInt(ptr noundef %66)
  store i32 %67, ptr %13, align 4, !tbaa !18
  %68 = load i32, ptr %13, align 4, !tbaa !18
  %69 = icmp eq i32 %68, -1
  br i1 %69, label %70, label %74

70:                                               ; preds = %63
  %71 = call ptr @PyErr_Occurred()
  %72 = icmp ne ptr %71, null
  br i1 %72, label %73, label %74

73:                                               ; preds = %70
  br label %116

74:                                               ; preds = %70, %63
  %75 = load ptr, ptr %6, align 8, !tbaa !63
  %76 = getelementptr ptr, ptr %75, i64 3
  %77 = load ptr, ptr %76, align 8, !tbaa !41
  %78 = call i32 @PyLong_AsInt(ptr noundef %77)
  store i32 %78, ptr %14, align 4, !tbaa !18
  %79 = load i32, ptr %14, align 4, !tbaa !18
  %80 = icmp eq i32 %79, -1
  br i1 %80, label %81, label %85

81:                                               ; preds = %74
  %82 = call ptr @PyErr_Occurred()
  %83 = icmp ne ptr %82, null
  br i1 %83, label %84, label %85

84:                                               ; preds = %81
  br label %116

85:                                               ; preds = %81, %74
  %86 = load ptr, ptr %6, align 8, !tbaa !63
  %87 = getelementptr ptr, ptr %86, i64 4
  %88 = load ptr, ptr %87, align 8, !tbaa !41
  %89 = call i32 @PyLong_AsInt(ptr noundef %88)
  store i32 %89, ptr %15, align 4, !tbaa !18
  %90 = load i32, ptr %15, align 4, !tbaa !18
  %91 = icmp eq i32 %90, -1
  br i1 %91, label %92, label %96

92:                                               ; preds = %85
  %93 = call ptr @PyErr_Occurred()
  %94 = icmp ne ptr %93, null
  br i1 %94, label %95, label %96

95:                                               ; preds = %92
  br label %116

96:                                               ; preds = %92, %85
  %97 = load ptr, ptr %6, align 8, !tbaa !63
  %98 = getelementptr ptr, ptr %97, i64 5
  %99 = load ptr, ptr %98, align 8, !tbaa !41
  %100 = call i32 @PyLong_AsInt(ptr noundef %99)
  store i32 %100, ptr %16, align 4, !tbaa !18
  %101 = load i32, ptr %16, align 4, !tbaa !18
  %102 = icmp eq i32 %101, -1
  br i1 %102, label %103, label %107

103:                                              ; preds = %96
  %104 = call ptr @PyErr_Occurred()
  %105 = icmp ne ptr %104, null
  br i1 %105, label %106, label %107

106:                                              ; preds = %103
  br label %116

107:                                              ; preds = %103, %96
  %108 = load ptr, ptr %5, align 8, !tbaa !41
  %109 = load i32, ptr %11, align 4, !tbaa !18
  %110 = load i32, ptr %12, align 4, !tbaa !18
  %111 = load i32, ptr %13, align 4, !tbaa !18
  %112 = load i32, ptr %14, align 4, !tbaa !18
  %113 = load i32, ptr %15, align 4, !tbaa !18
  %114 = load i32, ptr %16, align 4, !tbaa !18
  %115 = call ptr @InstructionSequenceType_addop_impl(ptr noundef %108, i32 noundef %109, i32 noundef %110, i32 noundef %111, i32 noundef %112, i32 noundef %113, i32 noundef %114)
  store ptr %115, ptr %9, align 8, !tbaa !41
  br label %116

116:                                              ; preds = %107, %106, %95, %84, %73, %62, %51, %40
  %117 = load ptr, ptr %9, align 8, !tbaa !41
  call void @llvm.lifetime.end.p0(i64 4, ptr %16) #6
  call void @llvm.lifetime.end.p0(i64 4, ptr %15) #6
  call void @llvm.lifetime.end.p0(i64 4, ptr %14) #6
  call void @llvm.lifetime.end.p0(i64 4, ptr %13) #6
  call void @llvm.lifetime.end.p0(i64 4, ptr %12) #6
  call void @llvm.lifetime.end.p0(i64 4, ptr %11) #6
  call void @llvm.lifetime.end.p0(i64 48, ptr %10) #6
  call void @llvm.lifetime.end.p0(i64 8, ptr %9) #6
  ret ptr %117
}