; Function Attrs: nounwind uwtable
define internal noundef ptr @InstructionSequenceType_addop(ptr noundef %0, ptr noundef %1, i64 noundef %2, ptr noundef %3) #1 {
  %5 = alloca [6 x ptr], align 16
  call void @llvm.lifetime.start.p0(i64 48, ptr nonnull %5) #6
  %6 = icmp eq ptr %3, null
  %7 = icmp eq i64 %2, 6
  %or.cond3 = and i1 %7, %6
  %8 = icmp ne ptr %1, null
  %or.cond5 = and i1 %8, %or.cond3
  br i1 %or.cond5, label %.thread, label %9

9:                                                ; preds = %4
  %10 = call ptr @_PyArg_UnpackKeywords(ptr noundef %1, i64 noundef %2, ptr noundef null, ptr noundef %3, ptr noundef nonnull @InstructionSequenceType_addop._parser, i32 noundef 6, i32 noundef 6, i32 noundef 0, i32 noundef 0, ptr noundef nonnull %5) #6
  %.not = icmp eq ptr %10, null
  br i1 %.not, label %InstructionSequenceType_addop_impl.exit, label %.thread

.thread:                                          ; preds = %4, %9
  %11 = phi ptr [ %10, %9 ], [ %1, %4 ]
  %12 = load ptr, ptr %11, align 8, !tbaa !56
  %13 = call i32 @PyLong_AsInt(ptr noundef %12) #6
  %14 = icmp eq i32 %13, -1
  br i1 %14, label %15, label %17

15:                                               ; preds = %.thread
  %16 = call ptr @PyErr_Occurred() #6
  %.not37 = icmp eq ptr %16, null
  br i1 %.not37, label %17, label %InstructionSequenceType_addop_impl.exit

17:                                               ; preds = %15, %.thread
  %18 = getelementptr i8, ptr %11, i64 8
  %19 = load ptr, ptr %18, align 8, !tbaa !56
  %20 = call i32 @PyLong_AsInt(ptr noundef %19) #6
  %21 = icmp eq i32 %20, -1
  br i1 %21, label %22, label %24

22:                                               ; preds = %17
  %23 = call ptr @PyErr_Occurred() #6
  %.not38 = icmp eq ptr %23, null
  br i1 %.not38, label %24, label %InstructionSequenceType_addop_impl.exit

24:                                               ; preds = %22, %17
  %25 = getelementptr i8, ptr %11, i64 16
  %26 = load ptr, ptr %25, align 8, !tbaa !56
  %27 = call i32 @PyLong_AsInt(ptr noundef %26) #6
  %28 = icmp eq i32 %27, -1
  br i1 %28, label %29, label %31

29:                                               ; preds = %24
  %30 = call ptr @PyErr_Occurred() #6
  %.not39 = icmp eq ptr %30, null
  br i1 %.not39, label %31, label %InstructionSequenceType_addop_impl.exit

31:                                               ; preds = %29, %24
  %32 = getelementptr i8, ptr %11, i64 24
  %33 = load ptr, ptr %32, align 8, !tbaa !56
  %34 = call i32 @PyLong_AsInt(ptr noundef %33) #6
  %35 = icmp eq i32 %34, -1
  br i1 %35, label %36, label %38

36:                                               ; preds = %31
  %37 = call ptr @PyErr_Occurred() #6
  %.not40 = icmp eq ptr %37, null
  br i1 %.not40, label %38, label %InstructionSequenceType_addop_impl.exit

38:                                               ; preds = %36, %31
  %39 = getelementptr i8, ptr %11, i64 32
  %40 = load ptr, ptr %39, align 8, !tbaa !56
  %41 = call i32 @PyLong_AsInt(ptr noundef %40) #6
  %42 = icmp eq i32 %41, -1
  br i1 %42, label %43, label %45

43:                                               ; preds = %38
  %44 = call ptr @PyErr_Occurred() #6
  %.not41 = icmp eq ptr %44, null
  br i1 %.not41, label %45, label %InstructionSequenceType_addop_impl.exit

45:                                               ; preds = %43, %38
  %46 = getelementptr i8, ptr %11, i64 40
  %47 = load ptr, ptr %46, align 8, !tbaa !56
  %48 = call i32 @PyLong_AsInt(ptr noundef %47) #6
  %49 = icmp eq i32 %48, -1
  br i1 %49, label %60, label %.split

.split:                                           ; preds = %45
  %50 = getelementptr inbounds nuw i8, ptr %0, i64 28
  %51 = load i32, ptr %50, align 4, !tbaa !16
  %52 = add i32 %51, 1
  %53 = getelementptr inbounds nuw i8, ptr %0, i64 16
  %54 = getelementptr inbounds nuw i8, ptr %0, i64 24
  %55 = call i32 @_PyCompile_EnsureArrayLargeEnough(i32 noundef %52, ptr noundef nonnull %53, ptr noundef nonnull %54, i32 noundef 100, i64 noundef 44) #6
  %56 = icmp eq i32 %55, -1
  br i1 %56, label %InstructionSequenceType_addop_impl.exit, label %instr_sequence_next_inst.exit.i.i

instr_sequence_next_inst.exit.i.i:                ; preds = %.split
  %.sroa.5.12.insert.ext.i = zext i32 %48 to i64
  %.sroa.5.12.insert.shift.i = shl nuw i64 %.sroa.5.12.insert.ext.i, 32
  %.sroa.5.8.insert.ext.i = zext i32 %41 to i64
  %.sroa.5.12.insert.insert.i = or disjoint i64 %.sroa.5.12.insert.shift.i, %.sroa.5.8.insert.ext.i
  %.sroa.0.4.insert.ext.i = zext i32 %34 to i64
  %.sroa.0.4.insert.shift.i = shl nuw i64 %.sroa.0.4.insert.ext.i, 32
  %.sroa.0.0.insert.ext.i = zext i32 %27 to i64
  %.sroa.0.4.insert.insert.i = or disjoint i64 %.sroa.0.4.insert.shift.i, %.sroa.0.0.insert.ext.i
  %57 = load i32, ptr %50, align 4, !tbaa !16
  %58 = add i32 %57, 1
  store i32 %58, ptr %50, align 4, !tbaa !16
  %59 = icmp eq i32 %57, -1
  br i1 %59, label %InstructionSequenceType_addop_impl.exit, label %InstructionSequenceType_addop_impl.exit.sink.split

60:                                               ; preds = %45
  %61 = call ptr @PyErr_Occurred() #6
  %.not42 = icmp eq ptr %61, null
  br i1 %.not42, label %.split33, label %InstructionSequenceType_addop_impl.exit

.split33:                                         ; preds = %60
  %62 = getelementptr inbounds nuw i8, ptr %0, i64 28
  %63 = load i32, ptr %62, align 4, !tbaa !16
  %64 = add i32 %63, 1
  %65 = getelementptr inbounds nuw i8, ptr %0, i64 16
  %66 = getelementptr inbounds nuw i8, ptr %0, i64 24
  %67 = call i32 @_PyCompile_EnsureArrayLargeEnough(i32 noundef %64, ptr noundef nonnull %65, ptr noundef nonnull %66, i32 noundef 100, i64 noundef 44) #6
  %68 = icmp eq i32 %67, -1
  br i1 %68, label %InstructionSequenceType_addop_impl.exit, label %instr_sequence_next_inst.exit.i.i49

instr_sequence_next_inst.exit.i.i49:              ; preds = %.split33
  %.sroa.5.8.insert.ext.i47 = zext i32 %41 to i64
  %.sroa.5.12.insert.insert.i48 = or disjoint i64 %.sroa.5.8.insert.ext.i47, -4294967296
  %.sroa.0.4.insert.ext.i44 = zext i32 %34 to i64
  %.sroa.0.4.insert.shift.i45 = shl nuw i64 %.sroa.0.4.insert.ext.i44, 32
  %.sroa.0.0.insert.ext.i43 = zext i32 %27 to i64
  %.sroa.0.4.insert.insert.i46 = or disjoint i64 %.sroa.0.4.insert.shift.i45, %.sroa.0.0.insert.ext.i43
  %69 = load i32, ptr %62, align 4, !tbaa !16
  %70 = add i32 %69, 1
  store i32 %70, ptr %62, align 4, !tbaa !16
  %71 = icmp eq i32 %69, -1
  br i1 %71, label %InstructionSequenceType_addop_impl.exit, label %InstructionSequenceType_addop_impl.exit.sink.split

InstructionSequenceType_addop_impl.exit.sink.split: ; preds = %instr_sequence_next_inst.exit.i.i49, %instr_sequence_next_inst.exit.i.i
  %.sink = phi i32 [ %57, %instr_sequence_next_inst.exit.i.i ], [ %69, %instr_sequence_next_inst.exit.i.i49 ]
  %.sink59.in = phi ptr [ %53, %instr_sequence_next_inst.exit.i.i ], [ %65, %instr_sequence_next_inst.exit.i.i49 ]
  %.sroa.0.4.insert.insert.i46.sink = phi i64 [ %.sroa.0.4.insert.insert.i, %instr_sequence_next_inst.exit.i.i ], [ %.sroa.0.4.insert.insert.i46, %instr_sequence_next_inst.exit.i.i49 ]
  %.sroa.5.12.insert.insert.i48.sink = phi i64 [ %.sroa.5.12.insert.insert.i, %instr_sequence_next_inst.exit.i.i ], [ %.sroa.5.12.insert.insert.i48, %instr_sequence_next_inst.exit.i.i49 ]
  %.sink59 = load ptr, ptr %.sink59.in, align 8, !tbaa !20
  %72 = sext i32 %.sink to i64
  %73 = getelementptr %struct._PyInstruction, ptr %.sink59, i64 %72
  store i32 %13, ptr %73, align 4, !tbaa !21
  %74 = getelementptr inbounds nuw i8, ptr %73, i64 4
  store i32 %20, ptr %74, align 4, !tbaa !28
  %75 = getelementptr inbounds nuw i8, ptr %73, i64 8
  store i64 %.sroa.0.4.insert.insert.i46.sink, ptr %75, align 4
  %.sroa.2.0..sroa_idx.i.i51 = getelementptr inbounds nuw i8, ptr %73, i64 16
  store i64 %.sroa.5.12.insert.insert.i48.sink, ptr %.sroa.2.0..sroa_idx.i.i51, align 4
  br label %InstructionSequenceType_addop_impl.exit

InstructionSequenceType_addop_impl.exit:          ; preds = %InstructionSequenceType_addop_impl.exit.sink.split, %instr_sequence_next_inst.exit.i.i49, %.split33, %instr_sequence_next_inst.exit.i.i, %.split, %60, %43, %36, %29, %22, %15, %9
  %.0 = phi ptr [ null, %15 ], [ null, %22 ], [ null, %29 ], [ null, %36 ], [ null, %43 ], [ null, %60 ], [ null, %9 ], [ null, %instr_sequence_next_inst.exit.i.i ], [ null, %.split ], [ null, %instr_sequence_next_inst.exit.i.i49 ], [ null, %.split33 ], [ @_Py_NoneStruct, %InstructionSequenceType_addop_impl.exit.sink.split ]
  call void @llvm.lifetime.end.p0(i64 48, ptr nonnull %5) #6
  ret ptr %.0
}